Certificate:
    Data:
        Version: 3 (0x2)
        Serial Number: 2 (0x2)
        Signature Algorithm: sha1WithRSAEncryption
        Issuer: C=DE, L=Nuremberg, O=SUSE Linux GmbH, OU=IT, CN=SUSE Root CA/emailAddress=suse@suse.de
        Validity
            Not Before: Mar 18 15:53:11 2005 GMT
            Not After : Mar 15 15:53:11 2015 GMT
        Subject: C=DE, L=Nuremberg, O=SUSE Linux GmbH, OU=IT, CN=SUSE User CA/emailAddress=security-team@suse.de
        Subject Public Key Info:
            Public Key Algorithm: rsaEncryption
            RSA Public Key: (2048 bit)
                Modulus (2048 bit):
                    00:a9:d9:fb:3f:ea:b1:66:4e:dd:21:2f:02:55:81:
                    33:ff:15:ef:5b:48:a0:d3:b8:72:1d:43:c3:f0:88:
                    07:df:1a:5d:51:21:65:f2:09:20:98:3d:f4:76:ce:
                    1d:00:f1:59:df:46:b9:56:d2:17:13:7f:16:dc:b8:
                    25:c5:8a:ff:26:77:71:ba:f2:34:63:af:d7:2d:a5:
                    3f:a2:7b:e6:19:24:45:7b:da:2c:ce:06:0c:3f:a1:
                    e6:99:3b:d0:32:c8:ba:67:84:ef:03:8d:49:21:cc:
                    e2:5e:8e:55:b8:f8:8c:5b:5a:50:1d:f4:b8:bf:8c:
                    48:d5:c4:16:67:34:cb:cc:e5:33:6b:6d:aa:25:4f:
                    0c:97:67:b0:b4:f8:7f:24:b4:61:cc:07:70:b7:e6:
                    80:16:71:98:4a:2f:5b:42:08:1d:01:e6:44:6c:f6:
                    b4:76:a6:e4:81:f6:da:3c:40:09:9d:ac:f2:ac:3d:
                    54:fb:83:a8:c4:9d:1e:3d:90:d3:06:7f:6a:2e:dc:
                    e8:0a:6f:f5:89:2f:c7:e9:86:b7:2e:16:c6:96:4c:
                    33:cf:a6:fa:c4:21:8b:2f:7b:41:e2:08:97:31:b0:
                    d5:0f:87:c3:65:51:06:37:db:ea:16:6f:54:9a:77:
                    1f:a9:63:ac:cc:31:b1:4e:ab:7c:dd:e0:d8:46:80:
                    9e:d9
                Exponent: 65537 (0x10001)
        X509v3 extensions:
            X509v3 Basic Constraints: critical
                CA:TRUE
            Netscape Comment: 
                YaST Generated CA Certificate
            Netscape Cert Type: 
                S/MIME CA
            X509v3 Key Usage: 
                Certificate Sign, CRL Sign
            X509v3 Subject Key Identifier: 
                4A:22:6B:4B:E2:67:17:89:1C:37:35:5C:FE:89:69:D6:85:E2:0C:AD
            X509v3 Authority Key Identifier: 
                keyid:DA:91:17:4E:A8:F5:A7:C1:28:DF:3C:00:EA:09:98:73:E0:A3:6E:17
                DirName:/C=DE/L=Nuremberg/O=SUSE Linux GmbH/OU=IT/CN=SUSE Root CA/emailAddress=suse@suse.de
                serial:BF:4B:A5:8B:0C:36:EE:EE

            X509v3 Subject Alternative Name: 
                email:security-team@suse.de
            X509v3 Issuer Alternative Name: 
                email:security-team@suse.de, email:suse@suse.de
    Signature Algorithm: sha1WithRSAEncryption
        16:14:0a:05:9e:eb:8d:e2:ef:e2:98:62:34:42:75:59:e8:e8:
        cc:e8:35:51:73:02:5d:b8:9e:81:cc:35:ea:4b:86:40:33:a6:
        01:06:49:4b:7b:71:41:62:1c:08:69:8b:dd:d1:86:3c:c7:91:
        74:0c:b6:0b:e2:e0:d9:0d:a3:37:de:6c:9f:d4:3e:db:91:3c:
        a4:01:43:51:57:8e:4d:18:a8:be:a4:31:75:99:85:bd:4b:51:
        c7:44:05:cc:a1:2b:d4:72:f5:b4:44:65:22:2b:a2:57:4b:a3:
        c6:27:24:4a:6c:b7:92:a5:20:d4:aa:19:66:ac:2a:8d:7f:d6:
        2a:02:13:60:65:76:61:cd:8d:09:cd:63:5c:44:0d:16:a3:c4:
        f0:5e:a0:a3:1d:c3:fb:fd:d6:2b:10:52:4e:aa:ea:ae:7a:ea:
        ed:b8:81:9a:10:3f:f1:2b:ce:9a:cc:90:04:33:4a:51:dd:fd:
        15:f4:e8:f5:82:86:bc:1f:7e:08:4a:e7:7e:ce:8d:9c:83:b1:
        59:6d:72:ba:e2:37:6e:0a:09:87:53:a0:f4:ef:4d:0a:d6:21:
        60:29:01:c1:f5:e2:7a:3c:09:7b:43:7d:ce:33:7c:c1:b6:80:
        b6:e3:aa:5f:a0:47:ec:4c:be:c0:a6:84:6e:e1:94:35:63:f2:
        1f:c7:a0:cf
-----BEGIN CERTIFICATE-----
MIIFBTCCA+2gAwIBAgIBAjANBgkqhkiG9w0BAQUFADB8MQswCQYDVQQGEwJERTES
MBAGA1UEBxMJTnVyZW1iZXJnMRgwFgYDVQQKEw9TVVNFIExpbnV4IEdtYkgxCzAJ
BgNVBAsTAklUMRUwEwYDVQQDEwxTVVNFIFJvb3QgQ0ExGzAZBgkqhkiG9w0BCQEW
DHN1c2VAc3VzZS5kZTAeFw0wNTAzMTgxNTUzMTFaFw0xNTAzMTUxNTUzMTFaMIGF
MQswCQYDVQQGEwJERTESMBAGA1UEBxMJTnVyZW1iZXJnMRgwFgYDVQQKEw9TVVNF
IExpbnV4IEdtYkgxCzAJBgNVBAsTAklUMRUwEwYDVQQDEwxTVVNFIFVzZXIgQ0Ex
JDAiBgkqhkiG9w0BCQEWFXNlY3VyaXR5LXRlYW1Ac3VzZS5kZTCCASIwDQYJKoZI
hvcNAQEBBQADggEPADCCAQoCggEBAKnZ+z/qsWZO3SEvAlWBM/8V71tIoNO4ch1D
w/CIB98aXVEhZfIJIJg99HbOHQDxWd9GuVbSFxN/Fty4JcWK/yZ3cbryNGOv1y2l
P6J75hkkRXvaLM4GDD+h5pk70DLIumeE7wONSSHM4l6OVbj4jFtaUB30uL+MSNXE
Fmc0y8zlM2ttqiVPDJdnsLT4fyS0YcwHcLfmgBZxmEovW0IIHQHmRGz2tHam5IH2
2jxACZ2s8qw9VPuDqMSdHj2Q0wZ/ai7c6Apv9Ykvx+mGty4WxpZMM8+m+sQhiy97
QeIIlzGw1Q+Hw2VRBjfb6hZvVJp3H6ljrMwxsU6rfN3g2EaAntkCAwEAAaOCAYYw
ggGCMA8GA1UdEwEB/wQFMAMBAf8wLAYJYIZIAYb4QgENBB8WHVlhU1QgR2VuZXJh
dGVkIENBIENlcnRpZmljYXRlMBEGCWCGSAGG+EIBAQQEAwIBAjALBgNVHQ8EBAMC
AQYwHQYDVR0OBBYEFEoia0viZxeJHDc1XP6JadaF4gytMIGvBgNVHSMEgacwgaSA
FNqRF06o9afBKN88AOoJmHPgo24XoYGApH4wfDELMAkGA1UEBhMCREUxEjAQBgNV
BAcTCU51cmVtYmVyZzEYMBYGA1UEChMPU1VTRSBMaW51eCBHbWJIMQswCQYDVQQL
EwJJVDEVMBMGA1UEAxMMU1VTRSBSb290IENBMRswGQYJKoZIhvcNAQkBFgxzdXNl
QHN1c2UuZGWCCQC/S6WLDDbu7jAgBgNVHREEGTAXgRVzZWN1cml0eS10ZWFtQHN1
c2UuZGUwLgYDVR0SBCcwJYEVc2VjdXJpdHktdGVhbUBzdXNlLmRlgQxzdXNlQHN1
c2UuZGUwDQYJKoZIhvcNAQEFBQADggEBABYUCgWe643i7+KYYjRCdVno6MzoNVFz
Al24noHMNepLhkAzpgEGSUt7cUFiHAhpi93RhjzHkXQMtgvi4NkNozfebJ/UPtuR
PKQBQ1FXjk0YqL6kMXWZhb1LUcdEBcyhK9Ry9bREZSIroldLo8YnJEpst5KlINSq
GWasKo1/1ioCE2BldmHNjQnNY1xEDRajxPBeoKMdw/v91isQUk6q6q566u24gZoQ
P/ErzprMkAQzSlHd/RX06PWChrwffghK537OjZyDsVltcrriN24KCYdToPTvTQrW
IWApAcH14no8CXtDfc4zfMG2gLbjql+gR+xMvsCmhG7hlDVj8h/HoM8=
-----END CERTIFICATE-----
