Certificate:
    Data:
        Version: 3 (0x2)
        Serial Number: 1 (0x1)
        Signature Algorithm: sha1WithRSAEncryption
        Issuer: C=DE, L=Nuernberg, O=My GmbH, CN=Test1_SuSE CA/emailAddress=my@linux.tux
        Validity
            Not Before: Mar 24 13:55:26 2005 GMT
            Not After : Mar 24 13:55:26 2006 GMT
        Subject: C=DE, ST=Bavaria, L=Nuremberg, O=My Linux, Inc., OU=IT Abteilung, CN=My Request5/emailAddress=my2@tait.linux.tux
        Subject Public Key Info:
            Public Key Algorithm: rsaEncryption
            RSA Public Key: (2048 bit)
                Modulus (2048 bit):
                    00:bc:2d:9a:5d:19:8d:40:6d:83:93:0b:a2:0c:5d:
                    d9:bc:ee:65:6b:00:87:47:1e:1a:6c:75:59:84:d9:
                    ef:c4:0d:03:0d:ce:a7:a1:ff:33:17:8a:f5:22:c5:
                    55:ff:2a:e8:e1:1d:e2:1a:0a:9b:85:8a:71:e4:42:
                    21:79:c7:5d:7f:07:18:89:e7:c0:51:22:cd:46:0c:
                    d5:33:05:99:5e:6f:89:7b:04:fc:05:36:c9:63:1c:
                    77:f7:ab:e6:3e:11:f6:89:86:9f:09:6c:c1:97:41:
                    fa:8d:89:b7:51:84:74:4b:bf:49:52:c2:e1:c1:73:
                    10:c1:63:f9:5d:e8:8f:75:10:02:d9:ae:d3:23:2a:
                    02:3a:d0:fe:94:71:62:27:0f:f6:34:a9:06:67:ed:
                    3c:93:6a:db:f0:b9:8c:c0:c5:87:85:a1:3d:d5:36:
                    a8:ed:da:3e:e0:e0:d7:ec:a7:8d:c0:0b:bb:aa:24:
                    19:6a:45:51:7d:c8:d1:79:78:62:e9:75:ee:df:2b:
                    10:ab:1b:b4:65:b5:2a:54:58:a3:5d:62:15:2c:3b:
                    ef:a8:76:b2:a2:49:37:e8:4e:8d:a1:c1:ad:2b:4e:
                    c8:53:25:b1:54:ed:57:8c:61:58:5f:e2:ff:eb:73:
                    58:df:c4:b6:21:f5:d3:7d:ee:b3:bd:7e:c0:24:ef:
                    71:7b
                Exponent: 65537 (0x10001)
        X509v3 extensions:
            Netscape Comment: 
                Toller comment
            X509v3 Subject Key Identifier: 
                A8:BB:A2:1B:38:F7:48:1A:14:1F:9E:EA:14:3B:23:87:F3:D6:14:1E
            X509v3 Authority Key Identifier: 
                keyid:EE:45:C0:17:47:31:4E:E4:63:2B:F4:87:E4:4E:B0:86:C4:28:8C:D3
                DirName:/C=DE/L=Nuernberg/O=My GmbH/CN=Test1_SuSE CA/emailAddress=my@linux.tux
                serial:F7:90:97:82:36:78:38:91

            X509v3 Subject Alternative Name: 
                email:my2@tait.linux.tux
            X509v3 Issuer Alternative Name: 
                email:my@linux.tux
            X509v3 CRL Distribution Points: 
                URI:ldap://my.linux.tux/cn=Test1_SuSE_CA%2Cou=CA%2Cdc=suse%2Cdc=de

    Signature Algorithm: sha1WithRSAEncryption
        a1:4a:a8:77:3f:3a:fb:c4:9d:f5:93:e1:18:8d:22:0d:22:f9:
        0c:3d:e2:46:78:8d:ca:3d:f6:f4:b3:47:dc:06:8c:d7:b6:b0:
        85:50:0c:3b:20:d3:22:46:a8:03:1e:1e:ff:86:48:12:d7:b9:
        37:a1:87:d7:5a:9e:92:f7:fc:d8:bf:25:d2:eb:2c:ab:46:31:
        b3:f7:fd:ba:48:20:62:ba:f7:07:c6:79:46:92:ae:b5:ee:0d:
        f7:03:7a:86:83:37:00:bf:4c:48:d4:9d:04:b7:87:63:93:f2:
        66:32:d7:f0:e1:68:37:b9:e6:fb:16:30:71:a0:50:c2:9b:0f:
        f6:b8:ba:d2:f4:88:dd:65:fa:19:5a:d1:5a:9c:a9:c3:6b:47:
        9b:7c:1e:ba:eb:05:95:06:cf:15:e1:f0:51:6f:28:e6:50:b3:
        94:0f:4c:25:41:00:28:4f:d5:f1:c4:01:26:c9:94:05:e4:48:
        6c:b6:47:65:8e:85:38:03:11:2d:cb:25:bd:f8:be:e6:37:88:
        68:91:3f:31:25:9a:d9:ed:fc:fb:c4:f3:d6:f6:e5:39:69:ec:
        a4:7d:5a:d9:ed:79:d9:32:58:09:cb:93:64:76:43:1f:36:a7:
        0a:84:01:bd:45:7c:19:55:72:29:d0:15:d4:1a:c8:b4:bd:cc:
        5c:c7:a7:4e
-----BEGIN CERTIFICATE-----
MIIE6jCCA9KgAwIBAgIBATANBgkqhkiG9w0BAQUFADBoMQswCQYDVQQGEwJERTES
MBAGA1UEBxMJTnVlcm5iZXJnMRAwDgYDVQQKEwdNeSBHbWJIMRYwFAYDVQQDFA1U
ZXN0MV9TdVNFIENBMRswGQYJKoZIhvcNAQkBFgxteUBsaW51eC50dXgwHhcNMDUw
MzI0MTM1NTI2WhcNMDYwMzI0MTM1NTI2WjCBnDELMAkGA1UEBhMCREUxEDAOBgNV
BAgTB0JhdmFyaWExEjAQBgNVBAcTCU51cmVtYmVyZzEXMBUGA1UEChMOTXkgTGlu
dXgsIEluYy4xFTATBgNVBAsTDElUIEFidGVpbHVuZzEUMBIGA1UEAxMLTXkgUmVx
dWVzdDUxITAfBgkqhkiG9w0BCQEWEm15MkB0YWl0LmxpbnV4LnR1eDCCASIwDQYJ
KoZIhvcNAQEBBQADggEPADCCAQoCggEBALwtml0ZjUBtg5MLogxd2bzuZWsAh0ce
Gmx1WYTZ78QNAw3Op6H/MxeK9SLFVf8q6OEd4hoKm4WKceRCIXnHXX8HGInnwFEi
zUYM1TMFmV5viXsE/AU2yWMcd/er5j4R9omGnwlswZdB+o2Jt1GEdEu/SVLC4cFz
EMFj+V3oj3UQAtmu0yMqAjrQ/pRxYicP9jSpBmftPJNq2/C5jMDFh4WhPdU2qO3a
PuDg1+ynjcALu6okGWpFUX3I0Xl4Yul17t8rEKsbtGW1KlRYo11iFSw776h2sqJJ
N+hOjaHBrStOyFMlsVTtV4xhWF/i/+tzWN/EtiH1033us71+wCTvcXsCAwEAAaOC
AWgwggFkMB0GCWCGSAGG+EIBDQQQFg5Ub2xsZXIgY29tbWVudDAdBgNVHQ4EFgQU
qLuiGzj3SBoUH57qFDsjh/PWFB4wgZoGA1UdIwSBkjCBj4AU7kXAF0cxTuRjK/SH
5E6whsQojNOhbKRqMGgxCzAJBgNVBAYTAkRFMRIwEAYDVQQHEwlOdWVybmJlcmcx
EDAOBgNVBAoTB015IEdtYkgxFjAUBgNVBAMUDVRlc3QxX1N1U0UgQ0ExGzAZBgkq
hkiG9w0BCQEWDG15QGxpbnV4LnR1eIIJAPeQl4I2eDiRMB0GA1UdEQQWMBSBEm15
MkB0YWl0LmxpbnV4LnR1eDAXBgNVHRIEEDAOgQxteUBsaW51eC50dXgwTwYDVR0f
BEgwRjBEoEKgQIY+bGRhcDovL215LmxpbnV4LnR1eC9jbj1UZXN0MV9TdVNFX0NB
JTJDb3U9Q0ElMkNkYz1zdXNlJTJDZGM9ZGUwDQYJKoZIhvcNAQEFBQADggEBAKFK
qHc/OvvEnfWT4RiNIg0i+Qw94kZ4jco99vSzR9wGjNe2sIVQDDsg0yJGqAMeHv+G
SBLXuTehh9danpL3/Ni/JdLrLKtGMbP3/bpIIGK69wfGeUaSrrXuDfcDeoaDNwC/
TEjUnQS3h2OT8mYy1/DhaDe55vsWMHGgUMKbD/a4utL0iN1l+hla0VqcqcNrR5t8
HrrrBZUGzxXh8FFvKOZQs5QPTCVBAChP1fHEASbJlAXkSGy2R2WOhTgDES3LJb34
vuY3iGiRPzElmtnt/PvE89b25Tlp7KR9WtntedkyWAnLk2R2Qx82pwqEAb1FfBlV
cinQFdQayLS9zFzHp04=
-----END CERTIFICATE-----
