Certificate:
    Data:
        Version: 3 (0x2)
        Serial Number: 5 (0x5)
        Signature Algorithm: sha1WithRSAEncryption
        Issuer: C=DE, L=Nuernberg, O=My GmbH, CN=Test1_SuSE CA/emailAddress=my@linux.tux
        Validity
            Not Before: May 18 14:56:45 2005 GMT
            Not After : May 18 14:56:45 2006 GMT
        Subject: C=DE, O=Novell Inc., CN=Michael Calmer/emailAddress=Michael.Calmer@novell.com
        Subject Public Key Info:
            Public Key Algorithm: rsaEncryption
            RSA Public Key: (1024 bit)
                Modulus (1024 bit):
                    00:9b:69:bd:18:5b:2f:74:81:a5:e8:67:7c:34:3e:
                    90:08:f9:ed:f0:36:16:78:66:28:a7:94:25:a8:88:
                    65:be:47:01:a6:8c:03:40:c0:5a:49:62:27:7a:eb:
                    a6:f7:81:a2:05:54:80:1c:bc:39:29:85:07:1c:fc:
                    10:fd:c8:d0:15:db:2f:e8:46:1f:26:25:71:1a:e1:
                    26:0f:5d:74:a4:ec:bc:c2:e7:a3:83:3f:4b:80:e0:
                    29:02:ad:b1:7a:20:9d:38:44:1a:50:52:d0:1e:45:
                    f2:81:d0:16:e2:a8:e0:ac:04:36:af:8f:7c:db:f9:
                    c8:99:15:6b:08:97:c7:d6:6b
                Exponent: 65537 (0x10001)
        X509v3 extensions:
            X509v3 Basic Constraints: 
                CA:FALSE
            Netscape Comment: 
                YaST Generated Client Certificate
            Netscape Cert Type: 
                SSL Client, S/MIME, Object Signing
            X509v3 Key Usage: 
                Digital Signature, Non Repudiation, Key Encipherment
            X509v3 Subject Key Identifier: 
                38:5B:BF:B7:87:4E:BE:21:7C:FA:57:54:FE:79:38:C5:45:7D:5A:6B
            X509v3 Authority Key Identifier: 
                keyid:EE:45:C0:17:47:31:4E:E4:63:2B:F4:87:E4:4E:B0:86:C4:28:8C:D3
                DirName:/C=DE/L=Nuernberg/O=My GmbH/CN=Test1_SuSE CA/emailAddress=my@linux.tux
                serial:F7:90:97:82:36:78:38:91

            X509v3 Subject Alternative Name: 
                email:Michael.Calmer@novell.com
            X509v3 Issuer Alternative Name: 
                email:my@linux.tux
    Signature Algorithm: sha1WithRSAEncryption
        a3:06:d5:60:36:ca:53:93:01:8e:ff:b8:73:a8:02:ee:b1:ce:
        66:d5:45:94:b9:d0:df:04:ab:e6:7f:ad:8b:47:c5:16:ce:45:
        30:85:b0:cb:bc:85:97:80:d1:44:e2:db:b5:5f:88:c6:17:15:
        19:37:d0:2b:00:43:66:da:c6:2e:d7:76:01:46:64:65:51:8a:
        c2:38:68:c4:96:1c:9e:ab:7f:d6:5b:d7:15:dc:d3:a3:f4:9e:
        4a:2f:a0:44:77:97:2b:10:53:f8:30:e1:ba:85:83:ab:b1:90:
        f8:9f:a6:1a:2d:84:c1:88:28:99:8e:f3:a8:b4:42:46:8d:74:
        8b:77:9b:55:ae:d3:20:80:7d:e7:ad:07:e9:78:9c:f6:34:81:
        fa:3f:b7:33:ef:90:f7:62:17:b2:e0:e1:89:bb:91:89:75:d7:
        24:22:47:cb:a8:10:40:5c:cd:28:45:14:fe:f5:e7:33:b6:ee:
        e4:e6:71:68:e5:9d:63:80:96:4f:81:f3:a3:30:d7:bf:7b:06:
        4e:09:ae:93:b9:4a:c1:18:72:d2:13:68:4a:3b:d6:e9:4b:2f:
        4d:c8:4f:f1:09:83:c8:10:7a:ad:d2:02:91:d1:12:8a:3d:80:
        10:8a:9d:b0:3d:db:3b:60:fc:7f:5c:d9:9c:1c:f0:dc:05:ef:
        a0:c7:31:11
-----BEGIN CERTIFICATE-----
MIIEIzCCAwugAwIBAgIBBTANBgkqhkiG9w0BAQUFADBoMQswCQYDVQQGEwJERTES
MBAGA1UEBxMJTnVlcm5iZXJnMRAwDgYDVQQKEwdNeSBHbWJIMRYwFAYDVQQDFA1U
ZXN0MV9TdVNFIENBMRswGQYJKoZIhvcNAQkBFgxteUBsaW51eC50dXgwHhcNMDUw
NTE4MTQ1NjQ1WhcNMDYwNTE4MTQ1NjQ1WjBmMQswCQYDVQQGEwJERTEUMBIGA1UE
ChMLTm92ZWxsIEluYy4xFzAVBgNVBAMTDk1pY2hhZWwgQ2FsbWVyMSgwJgYJKoZI
hvcNAQkBFhlNaWNoYWVsLkNhbG1lckBub3ZlbGwuY29tMIGfMA0GCSqGSIb3DQEB
AQUAA4GNADCBiQKBgQCbab0YWy90gaXoZ3w0PpAI+e3wNhZ4ZiinlCWoiGW+RwGm
jANAwFpJYid666b3gaIFVIAcvDkphQcc/BD9yNAV2y/oRh8mJXEa4SYPXXSk7LzC
56ODP0uA4CkCrbF6IJ04RBpQUtAeRfKB0BbiqOCsBDavj3zb+ciZFWsIl8fWawID
AQABo4IBXDCCAVgwCQYDVR0TBAIwADAwBglghkgBhvhCAQ0EIxYhWWFTVCBHZW5l
cmF0ZWQgQ2xpZW50IENlcnRpZmljYXRlMBEGCWCGSAGG+EIBAQQEAwIEsDALBgNV
HQ8EBAMCBeAwHQYDVR0OBBYEFDhbv7eHTr4hfPpXVP55OMVFfVprMIGaBgNVHSME
gZIwgY+AFO5FwBdHMU7kYyv0h+ROsIbEKIzToWykajBoMQswCQYDVQQGEwJERTES
MBAGA1UEBxMJTnVlcm5iZXJnMRAwDgYDVQQKEwdNeSBHbWJIMRYwFAYDVQQDFA1U
ZXN0MV9TdVNFIENBMRswGQYJKoZIhvcNAQkBFgxteUBsaW51eC50dXiCCQD3kJeC
Nng4kTAkBgNVHREEHTAbgRlNaWNoYWVsLkNhbG1lckBub3ZlbGwuY29tMBcGA1Ud
EgQQMA6BDG15QGxpbnV4LnR1eDANBgkqhkiG9w0BAQUFAAOCAQEAowbVYDbKU5MB
jv+4c6gC7rHOZtVFlLnQ3wSr5n+ti0fFFs5FMIWwy7yFl4DRROLbtV+IxhcVGTfQ
KwBDZtrGLtd2AUZkZVGKwjhoxJYcnqt/1lvXFdzTo/SeSi+gRHeXKxBT+DDhuoWD
q7GQ+J+mGi2EwYgomY7zqLRCRo10i3ebVa7TIIB9560H6Xic9jSB+j+3M++Q92IX
suDhibuRiXXXJCJHy6gQQFzNKEUU/vXnM7bu5OZxaOWdY4CWT4HzozDXv3sGTgmu
k7lKwRhy0hNoSjvW6UsvTchP8QmDyBB6rdICkdESij2AEIqdsD3bO2D8f1zZnBzw
3AXvoMcxEQ==
-----END CERTIFICATE-----
