Certificate:
    Data:
        Version: 3 (0x2)
        Serial Number: 3 (0x3)
        Signature Algorithm: sha1WithRSAEncryption
        Issuer: C=DE, L=Nuremberg, O=SUSE Linux GmbH, OU=IT, CN=SUSE User CA/emailAddress=security-team@suse.de
        Validity
            Not Before: Mar 23 13:45:55 2005 GMT
            Not After : Dec 18 13:45:55 2007 GMT
        Subject: C=DE, L=Nuremberg, O=SUSE Linux GmbH, OU=IT, CN=SUSE IPSec CA/emailAddress=ipsec@suse.de
        Subject Public Key Info:
            Public Key Algorithm: rsaEncryption
            RSA Public Key: (2048 bit)
                Modulus (2048 bit):
                    00:ad:4f:10:ce:93:60:e0:3e:bd:c0:d1:d3:dd:c1:
                    6d:64:e0:0f:bb:1d:35:55:07:aa:15:85:d5:94:ea:
                    fb:ba:27:25:21:5e:3b:21:64:fd:bd:73:46:5a:ae:
                    0f:82:cb:6d:65:7d:4f:e9:f7:cb:20:9d:7d:9b:93:
                    38:64:8f:8d:cc:7a:5e:be:87:34:50:cb:17:66:3b:
                    1d:87:92:a3:52:e4:57:ff:91:93:47:48:40:6f:34:
                    6f:bf:52:5b:68:d4:b8:b7:12:48:72:cf:2c:d5:f8:
                    99:2d:eb:71:62:51:86:87:42:79:4f:33:60:4e:db:
                    f0:61:6f:f6:d2:cd:c9:dd:a2:a1:ce:64:e7:db:ac:
                    e6:73:57:49:3f:b5:63:b2:be:81:19:08:38:9f:7d:
                    2e:8e:2b:e4:c2:5b:c2:70:b3:c1:bf:f8:f0:c3:fb:
                    35:ab:94:3e:ca:43:60:d7:34:3a:92:91:8f:8c:a0:
                    6e:68:d7:fd:0f:0f:0d:41:64:b7:ea:80:f6:bd:d1:
                    62:2e:99:90:38:77:53:77:99:65:c2:e9:8e:5d:84:
                    6e:e6:d6:f1:3d:7d:a9:0d:82:c1:6f:8a:51:39:48:
                    44:6a:3a:21:7e:66:26:43:87:c4:ae:81:8c:31:93:
                    5b:fa:2c:32:9c:b6:d5:cd:44:1e:7f:f1:d3:d1:52:
                    97:c7
                Exponent: 65537 (0x10001)
        X509v3 extensions:
            X509v3 Basic Constraints: critical
                CA:TRUE
            Netscape Comment: 
                YaST Generated CA Certificate
            Netscape Cert Type: 
                SSL CA, S/MIME CA
            X509v3 Key Usage: 
                Certificate Sign, CRL Sign
            X509v3 Subject Key Identifier: 
                02:A0:2E:5B:5A:43:B2:EA:C9:C3:90:5E:06:2D:03:DF:8A:3E:51:D1
            X509v3 Authority Key Identifier: 
                keyid:4A:22:6B:4B:E2:67:17:89:1C:37:35:5C:FE:89:69:D6:85:E2:0C:AD
                DirName:/C=DE/L=Nuremberg/O=SUSE Linux GmbH/OU=IT/CN=SUSE Root CA/emailAddress=suse@suse.de
                serial:02

            X509v3 Subject Alternative Name: 
                email:ipsec@suse.de
            X509v3 Issuer Alternative Name: 
                email:security-team@suse.de
    Signature Algorithm: sha1WithRSAEncryption
        68:a2:4e:de:4b:ff:0e:03:f4:00:65:8e:1c:12:06:d3:08:62:
        dd:cb:eb:da:da:9d:08:4e:de:71:da:5c:06:a9:2c:a5:c5:33:
        9d:18:0a:50:b4:b3:3d:1d:53:7c:44:7a:39:a2:8e:af:76:03:
        6f:e3:c7:e5:82:be:47:29:29:91:c5:61:d3:4e:88:73:d2:6e:
        c1:bf:5a:0d:1f:1e:ca:19:5e:77:80:de:03:e7:ae:6b:7a:2b:
        0c:1d:fc:5b:16:e5:f4:ce:e6:ab:8a:3b:95:69:0b:08:8a:6c:
        75:98:e8:d0:15:28:b5:02:90:65:a2:82:5e:4d:2e:b6:28:dc:
        27:9b:ea:c6:1b:e2:fd:70:7e:d6:2d:15:fe:60:10:66:a7:a0:
        3f:57:c0:ce:4a:e3:75:97:0c:06:21:5d:93:0d:c8:05:96:ec:
        f5:04:c4:d1:49:ca:c1:77:94:ee:25:49:49:6c:c9:a6:7c:26:
        0a:10:77:3f:ae:3d:57:83:a8:07:fe:48:f3:d0:7e:37:9a:08:
        de:86:90:26:4f:56:76:92:fb:93:b2:73:89:5d:07:76:7c:97:
        d1:82:33:60:fc:63:97:23:32:4f:97:d3:c4:dc:51:54:e0:c0:
        bb:91:b7:86:9c:0c:05:37:63:1a:b8:a2:0c:fd:55:43:d1:f0:
        9f:39:3a:43
-----BEGIN CERTIFICATE-----
MIIE6TCCA9GgAwIBAgIBAzANBgkqhkiG9w0BAQUFADCBhTELMAkGA1UEBhMCREUx
EjAQBgNVBAcTCU51cmVtYmVyZzEYMBYGA1UEChMPU1VTRSBMaW51eCBHbWJIMQsw
CQYDVQQLEwJJVDEVMBMGA1UEAxMMU1VTRSBVc2VyIENBMSQwIgYJKoZIhvcNAQkB
FhVzZWN1cml0eS10ZWFtQHN1c2UuZGUwHhcNMDUwMzIzMTM0NTU1WhcNMDcxMjE4
MTM0NTU1WjB+MQswCQYDVQQGEwJERTESMBAGA1UEBxMJTnVyZW1iZXJnMRgwFgYD
VQQKEw9TVVNFIExpbnV4IEdtYkgxCzAJBgNVBAsTAklUMRYwFAYDVQQDEw1TVVNF
IElQU2VjIENBMRwwGgYJKoZIhvcNAQkBFg1pcHNlY0BzdXNlLmRlMIIBIjANBgkq
hkiG9w0BAQEFAAOCAQ8AMIIBCgKCAQEArU8QzpNg4D69wNHT3cFtZOAPux01VQeq
FYXVlOr7uiclIV47IWT9vXNGWq4PgsttZX1P6ffLIJ19m5M4ZI+NzHpevoc0UMsX
Zjsdh5KjUuRX/5GTR0hAbzRvv1JbaNS4txJIcs8s1fiZLetxYlGGh0J5TzNgTtvw
YW/20s3J3aKhzmTn26zmc1dJP7Vjsr6BGQg4n30ujivkwlvCcLPBv/jww/s1q5Q+
ykNg1zQ6kpGPjKBuaNf9Dw8NQWS36oD2vdFiLpmQOHdTd5llwumOXYRu5tbxPX2p
DYLBb4pROUhEajohfmYmQ4fEroGMMZNb+iwynLbVzUQef/HT0VKXxwIDAQABo4IB
aDCCAWQwDwYDVR0TAQH/BAUwAwEB/zAsBglghkgBhvhCAQ0EHxYdWWFTVCBHZW5l
cmF0ZWQgQ0EgQ2VydGlmaWNhdGUwEQYJYIZIAYb4QgEBBAQDAgEGMAsGA1UdDwQE
AwIBBjAdBgNVHQ4EFgQUAqAuW1pDsurJw5BeBi0D34o+UdEwgacGA1UdIwSBnzCB
nIAUSiJrS+JnF4kcNzVc/olp1oXiDK2hgYCkfjB8MQswCQYDVQQGEwJERTESMBAG
A1UEBxMJTnVyZW1iZXJnMRgwFgYDVQQKEw9TVVNFIExpbnV4IEdtYkgxCzAJBgNV
BAsTAklUMRUwEwYDVQQDEwxTVVNFIFJvb3QgQ0ExGzAZBgkqhkiG9w0BCQEWDHN1
c2VAc3VzZS5kZYIBAjAYBgNVHREEETAPgQ1pcHNlY0BzdXNlLmRlMCAGA1UdEgQZ
MBeBFXNlY3VyaXR5LXRlYW1Ac3VzZS5kZTANBgkqhkiG9w0BAQUFAAOCAQEAaKJO
3kv/DgP0AGWOHBIG0whi3cvr2tqdCE7ecdpcBqkspcUznRgKULSzPR1TfER6OaKO
r3YDb+PH5YK+RykpkcVh006Ic9Juwb9aDR8eyhled4DeA+eua3orDB38Wxbl9M7m
q4o7lWkLCIpsdZjo0BUotQKQZaKCXk0utijcJ5vqxhvi/XB+1i0V/mAQZqegP1fA
zkrjdZcMBiFdkw3IBZbs9QTE0UnKwXeU7iVJSWzJpnwmChB3P649V4OoB/5I89B+
N5oI3oaQJk9WdpL7k7JziV0HdnyX0YIzYPxjlyMyT5fTxNxRVODAu5G3hpwMBTdj
GriiDP1VQ9Hwnzk6Qw==
-----END CERTIFICATE-----
