Certificate:
    Data:
        Version: 3 (0x2)
        Serial Number: 2 (0x2)
        Signature Algorithm: sha1WithRSAEncryption
        Issuer: C=DE, L=Nuernberg, O=My GmbH, CN=Test1_SuSE CA/emailAddress=my@linux.tux
        Validity
            Not Before: Mar 24 13:55:27 2005 GMT
            Not After : Mar 24 13:55:27 2006 GMT
        Subject: C=DE, ST=Bavaria, L=Nuremberg, O=My Linux Tux GmbH, OU=IT Abteilung, CN=donar.linux.tux/emailAddress=my@linux.tux
        Subject Public Key Info:
            Public Key Algorithm: rsaEncryption
            RSA Public Key: (2048 bit)
                Modulus (2048 bit):
                    00:bd:a0:e5:45:77:3e:6e:8d:59:c4:8b:28:a7:8d:
                    56:34:5a:aa:7b:88:21:8a:47:8a:46:aa:99:25:b9:
                    bc:4e:24:bd:42:f7:a8:0c:33:f8:fb:a1:74:03:b5:
                    e3:2a:e0:7c:ad:6c:7c:91:b6:10:b7:85:97:11:aa:
                    d7:82:d1:57:da:45:d6:fd:3c:9a:e8:a8:5f:79:4b:
                    86:31:5a:ee:ff:06:7b:ce:00:45:1e:a4:33:98:1c:
                    c2:ae:93:7f:da:ff:ca:1b:bb:3e:41:52:3a:60:af:
                    71:4d:b2:d1:4a:1f:0b:d2:b7:2c:cd:da:5b:12:f3:
                    a6:9d:2c:e4:7e:70:cf:d1:1d:14:93:4c:ec:64:63:
                    10:62:ea:f6:3e:d3:e1:d8:12:cd:75:a3:2b:82:8c:
                    86:e6:69:67:84:dc:10:8b:a4:dd:62:90:2f:6e:63:
                    71:66:c9:cc:0e:9c:01:37:6b:4b:f9:77:b0:4b:c2:
                    86:d3:2f:52:47:00:da:f6:8d:e6:44:be:14:58:e8:
                    28:c3:ab:96:e6:80:85:a3:99:52:cb:8d:0a:4d:c1:
                    73:7e:a8:96:45:fa:d2:d3:3c:ae:cd:78:f4:76:1c:
                    e2:12:ac:dc:c5:4c:87:57:c2:8e:7c:ac:61:c5:33:
                    6b:c6:b5:3b:4c:26:66:10:5a:ca:a5:e3:4b:89:00:
                    90:f7
                Exponent: 65537 (0x10001)
        X509v3 extensions:
            X509v3 Subject Key Identifier: 
                9D:5D:23:A2:6C:4B:66:11:F3:B7:38:B4:30:83:DE:17:0B:3D:DB:44
            X509v3 Authority Key Identifier: 
                keyid:EE:45:C0:17:47:31:4E:E4:63:2B:F4:87:E4:4E:B0:86:C4:28:8C:D3
                DirName:/C=DE/L=Nuernberg/O=My GmbH/CN=Test1_SuSE CA/emailAddress=my@linux.tux
                serial:F7:90:97:82:36:78:38:91

            X509v3 Subject Alternative Name: 
                email:my@linux.tux
            X509v3 Issuer Alternative Name: 
                email:my@linux.tux
            X509v3 CRL Distribution Points: 
                URI:ldap://my.linux.tux/cn=Test1_SuSE_CA%2Cou=CA%2Cdc=suse%2Cdc=de

    Signature Algorithm: sha1WithRSAEncryption
        6f:32:fd:8b:57:42:ca:2f:15:05:ec:90:ac:de:83:bb:5c:55:
        e8:56:c1:36:f4:32:c1:05:4e:02:52:ae:b3:3f:e7:cf:ae:58:
        5d:39:92:78:3d:fe:a7:12:59:e4:0c:97:48:93:36:86:44:38:
        6d:9d:c3:50:45:d1:38:b7:ad:2a:d4:9d:4b:6f:39:81:d3:fc:
        7b:b7:e9:1e:90:b8:73:7d:36:b5:98:11:87:57:de:69:37:ad:
        19:85:64:c0:82:e7:f1:c0:0f:f1:20:e2:db:64:b8:f2:af:cb:
        d5:d0:f7:31:d7:d2:ce:81:38:e6:1d:3d:59:5a:a5:c8:15:a7:
        b5:bd:60:91:de:a8:b7:ed:dd:06:ca:b8:12:1c:c9:0c:13:2e:
        f2:91:af:9b:5a:30:10:d8:df:af:02:10:0c:82:68:58:37:50:
        6c:3b:72:48:18:6a:52:34:c0:a8:8c:64:f5:f9:2e:02:91:0c:
        33:32:7f:f7:70:ad:8b:d0:a1:c5:7d:4e:57:fa:ef:50:d8:0d:
        86:f3:b6:15:e1:ea:3d:b2:c0:09:ae:3e:8b:9e:2f:1d:40:1a:
        a7:60:ab:2c:21:f8:0d:1b:1f:06:4a:0c:28:b5:6e:f2:4f:12:
        bf:4c:4a:17:20:4a:77:ba:07:5c:07:6e:a3:4d:d3:6b:ee:2c:
        96:65:a3:d1
-----BEGIN CERTIFICATE-----
MIIExjCCA66gAwIBAgIBAjANBgkqhkiG9w0BAQUFADBoMQswCQYDVQQGEwJERTES
MBAGA1UEBxMJTnVlcm5iZXJnMRAwDgYDVQQKEwdNeSBHbWJIMRYwFAYDVQQDFA1U
ZXN0MV9TdVNFIENBMRswGQYJKoZIhvcNAQkBFgxteUBsaW51eC50dXgwHhcNMDUw
MzI0MTM1NTI3WhcNMDYwMzI0MTM1NTI3WjCBnTELMAkGA1UEBhMCREUxEDAOBgNV
BAgTB0JhdmFyaWExEjAQBgNVBAcTCU51cmVtYmVyZzEaMBgGA1UEChMRTXkgTGlu
dXggVHV4IEdtYkgxFTATBgNVBAsTDElUIEFidGVpbHVuZzEYMBYGA1UEAxMPZG9u
YXIubGludXgudHV4MRswGQYJKoZIhvcNAQkBFgxteUBsaW51eC50dXgwggEiMA0G
CSqGSIb3DQEBAQUAA4IBDwAwggEKAoIBAQC9oOVFdz5ujVnEiyinjVY0Wqp7iCGK
R4pGqpklubxOJL1C96gMM/j7oXQDteMq4HytbHyRthC3hZcRqteC0VfaRdb9PJro
qF95S4YxWu7/BnvOAEUepDOYHMKuk3/a/8obuz5BUjpgr3FNstFKHwvStyzN2lsS
86adLOR+cM/RHRSTTOxkYxBi6vY+0+HYEs11oyuCjIbmaWeE3BCLpN1ikC9uY3Fm
ycwOnAE3a0v5d7BLwobTL1JHANr2jeZEvhRY6CjDq5bmgIWjmVLLjQpNwXN+qJZF
+tLTPK7NePR2HOISrNzFTIdXwo58rGHFM2vGtTtMJmYQWsql40uJAJD3AgMBAAGj
ggFDMIIBPzAdBgNVHQ4EFgQUnV0jomxLZhHztzi0MIPeFws920QwgZoGA1UdIwSB
kjCBj4AU7kXAF0cxTuRjK/SH5E6whsQojNOhbKRqMGgxCzAJBgNVBAYTAkRFMRIw
EAYDVQQHEwlOdWVybmJlcmcxEDAOBgNVBAoTB015IEdtYkgxFjAUBgNVBAMUDVRl
c3QxX1N1U0UgQ0ExGzAZBgkqhkiG9w0BCQEWDG15QGxpbnV4LnR1eIIJAPeQl4I2
eDiRMBcGA1UdEQQQMA6BDG15QGxpbnV4LnR1eDAXBgNVHRIEEDAOgQxteUBsaW51
eC50dXgwTwYDVR0fBEgwRjBEoEKgQIY+bGRhcDovL215LmxpbnV4LnR1eC9jbj1U
ZXN0MV9TdVNFX0NBJTJDb3U9Q0ElMkNkYz1zdXNlJTJDZGM9ZGUwDQYJKoZIhvcN
AQEFBQADggEBAG8y/YtXQsovFQXskKzeg7tcVehWwTb0MsEFTgJSrrM/58+uWF05
kng9/qcSWeQMl0iTNoZEOG2dw1BF0Ti3rSrUnUtvOYHT/Hu36R6QuHN9NrWYEYdX
3mk3rRmFZMCC5/HAD/Eg4ttkuPKvy9XQ9zHX0s6BOOYdPVlapcgVp7W9YJHeqLft
3QbKuBIcyQwTLvKRr5taMBDY368CEAyCaFg3UGw7ckgYalI0wKiMZPX5LgKRDDMy
f/dwrYvQocV9Tlf671DYDYbzthXh6j2ywAmuPoueLx1AGqdgqywh+A0bHwZKDCi1
bvJPEr9MShcgSne6B1wHbqNN02vuLJZlo9E=
-----END CERTIFICATE-----
