Certificate:
    Data:
        Version: 3 (0x2)
        Serial Number: 3 (0x3)
        Signature Algorithm: sha1WithRSAEncryption
        Issuer: C=DE, L=Nuernberg, O=My GmbH, CN=Test1_SuSE CA/emailAddress=my@linux.tux
        Validity
            Not Before: Mar 24 13:55:31 2005 GMT
            Not After : Mar 24 13:55:31 2006 GMT
        Subject: C=DE, ST=Bavaria, L=Nuremberg, O=My Linux Tux GmbH, OU=IT Abteilung, CN=Michael Calmer/emailAddress=mc@suse.de
        Subject Public Key Info:
            Public Key Algorithm: rsaEncryption
            RSA Public Key: (2048 bit)
                Modulus (2048 bit):
                    00:96:d8:2f:01:60:a7:13:d3:33:e2:4b:3c:ab:16:
                    60:86:09:d7:f1:fb:f9:b7:eb:f9:d3:5d:aa:5f:94:
                    54:ee:ab:f7:d2:e2:bf:c1:0d:92:93:07:42:4f:24:
                    4b:76:15:00:45:2b:fa:85:6f:21:e1:38:67:41:72:
                    27:a6:b4:5c:e6:db:8f:5d:96:35:61:42:97:e5:04:
                    16:fa:2b:62:23:9c:75:72:0c:1a:64:12:73:b4:96:
                    49:d4:d9:8b:76:1c:aa:b9:0d:c1:24:4f:24:59:c1:
                    50:ca:4c:a4:1a:60:1f:4c:52:df:15:9c:8d:f5:ef:
                    ca:e1:24:39:2b:98:0f:f0:8c:00:9f:78:6a:ed:14:
                    6e:fd:d2:d4:2a:13:90:58:da:b2:15:0d:25:b2:bd:
                    52:0d:07:e9:35:34:7b:60:a8:ae:18:d5:7f:26:76:
                    7b:a9:24:97:3d:57:ca:2e:eb:39:a9:47:21:f6:20:
                    d6:dc:32:58:7f:af:49:4f:92:a2:22:8d:40:76:64:
                    f1:30:16:74:9b:aa:72:1b:14:f1:7c:f9:14:6b:1f:
                    59:b3:6a:01:95:2c:b7:ef:45:83:13:6f:fc:cc:a9:
                    e3:9b:1c:26:e5:be:2a:47:d0:77:73:83:da:e7:67:
                    26:8c:88:b3:93:9d:de:a7:b7:84:fa:b4:66:f9:4e:
                    13:25
                Exponent: 65537 (0x10001)
        X509v3 extensions:
            X509v3 Basic Constraints: critical
                CA:FALSE
            Netscape Comment: 
                Heide Witzka, Herr Kapitaen
            Netscape Cert Type: 
                SSL Client, S/MIME
            X509v3 Key Usage: 
                Digital Signature, Key Encipherment
            X509v3 Subject Key Identifier: critical
                02:94:83:F1:BB:27:DB:E2:A5:65:D8:54:95:EE:88:08:23:A3:AD:44
            X509v3 Authority Key Identifier: 
                keyid:EE:45:C0:17:47:31:4E:E4:63:2B:F4:87:E4:4E:B0:86:C4:28:8C:D3

            X509v3 Subject Alternative Name: 
                email:me@linux.tux, URI:http://www.linux.tux/, DNS:tait.linux.tux, Registered ID:1.2.3.4, IP Address:10.10.0.161
            X509v3 Issuer Alternative Name: 
                email:iss@linux.tux, URI:http://www.linux.tux/, DNS:hermes.linux.tux, Registered ID:1.7.9.1.1.4.5.7.1, IP Address:10.10.0.8
            Netscape CA Revocation Url: 
                http://www.linux.tux/
            Netscape Revocation Url: 
                http://www.linux.tux/
            X509v3 Extended Key Usage: 
                E-mail Protection, Microsoft Server Gated Crypto, Netscape Server Gated Crypto
            X509v3 CRL Distribution Points: 
                URI:ldap://my.linux.tux/cn=Test1_SuSE_CA%2Cou=CA%2Cdc=suse%2Cdc=de

            Netscape Base Url: 
                http://www.linux.tux/
            Netscape CA Policy Url: 
                http://www.linux.tux/
            Authority Information Access: 
                OCSP - URI:http://ocsp.my.host/

            Netscape Renewal Url: 
                http://www.linux.tux/
    Signature Algorithm: sha1WithRSAEncryption
        ca:35:f7:c0:34:92:24:a8:f4:8f:3c:b6:7f:06:33:06:66:56:
        f9:45:db:f3:c4:fe:d5:6e:e1:5c:71:46:a2:8f:3f:d4:d1:a3:
        1b:68:c3:6a:ce:af:13:2d:35:5f:38:1d:c4:a2:8d:b3:47:11:
        74:80:cf:11:cc:37:88:18:2d:66:2a:2b:92:af:95:bd:c7:75:
        59:ab:3e:e9:35:e5:c3:ba:fd:7b:7a:51:c5:2f:38:87:60:44:
        0c:05:43:45:5c:fe:01:19:c0:e7:d4:b9:84:3f:3a:71:a3:0a:
        e2:4d:6f:77:f7:af:b8:6f:f7:7d:5f:8d:b1:eb:b7:19:9d:f6:
        75:5d:fd:92:51:71:27:21:0d:d0:9a:b7:6f:e6:22:a0:30:e1:
        31:4e:ae:91:38:3e:41:03:98:96:5e:35:0b:a5:05:e5:60:ef:
        b7:ac:e3:52:2c:e5:29:e0:17:7a:58:7c:8d:a6:97:b2:1a:9c:
        96:44:38:d7:da:c7:e9:03:17:44:cd:32:fa:ab:bb:48:54:6d:
        23:0b:6f:fc:73:d7:68:3f:ef:21:6c:d7:63:cb:ba:52:79:17:
        75:34:c6:5b:22:66:ba:71:da:5f:68:32:f5:3c:21:15:91:8e:
        98:f5:59:6d:2d:c3:72:ff:25:a1:90:82:62:96:cb:46:77:d0:
        3d:98:e3:be
-----BEGIN CERTIFICATE-----
MIIGLDCCBRSgAwIBAgIBAzANBgkqhkiG9w0BAQUFADBoMQswCQYDVQQGEwJERTES
MBAGA1UEBxMJTnVlcm5iZXJnMRAwDgYDVQQKEwdNeSBHbWJIMRYwFAYDVQQDFA1U
ZXN0MV9TdVNFIENBMRswGQYJKoZIhvcNAQkBFgxteUBsaW51eC50dXgwHhcNMDUw
MzI0MTM1NTMxWhcNMDYwMzI0MTM1NTMxWjCBmjELMAkGA1UEBhMCREUxEDAOBgNV
BAgTB0JhdmFyaWExEjAQBgNVBAcTCU51cmVtYmVyZzEaMBgGA1UEChMRTXkgTGlu
dXggVHV4IEdtYkgxFTATBgNVBAsTDElUIEFidGVpbHVuZzEXMBUGA1UEAxMOTWlj
aGFlbCBDYWxtZXIxGTAXBgkqhkiG9w0BCQEWCm1jQHN1c2UuZGUwggEiMA0GCSqG
SIb3DQEBAQUAA4IBDwAwggEKAoIBAQCW2C8BYKcT0zPiSzyrFmCGCdfx+/m36/nT
XapflFTuq/fS4r/BDZKTB0JPJEt2FQBFK/qFbyHhOGdBciemtFzm249dljVhQpfl
BBb6K2IjnHVyDBpkEnO0lknU2Yt2HKq5DcEkTyRZwVDKTKQaYB9MUt8VnI3178rh
JDkrmA/wjACfeGrtFG790tQqE5BY2rIVDSWyvVINB+k1NHtgqK4Y1X8mdnupJJc9
V8ou6zmpRyH2INbcMlh/r0lPkqIijUB2ZPEwFnSbqnIbFPF8+RRrH1mzagGVLLfv
RYMTb/zMqeObHCblvipH0Hdzg9rnZyaMiLOTnd6nt4T6tGb5ThMlAgMBAAGjggKs
MIICqDAMBgNVHRMBAf8EAjAAMCoGCWCGSAGG+EIBDQQdFhtIZWlkZSBXaXR6a2Es
IEhlcnIgS2FwaXRhZW4wEQYJYIZIAYb4QgEBBAQDAgWgMAsGA1UdDwQEAwIFoDAg
BgNVHQ4BAf8EFgQUApSD8bsn2+KlZdhUle6ICCOjrUQwHwYDVR0jBBgwFoAU7kXA
F0cxTuRjK/SH5E6whsQojNMwSQYDVR0RBEIwQIEMbWVAbGludXgudHV4hhVodHRw
Oi8vd3d3LmxpbnV4LnR1eC+CDnRhaXQubGludXgudHV4iAMqAwSHBAoKAKEwUQYD
VR0SBEowSIENaXNzQGxpbnV4LnR1eIYVaHR0cDovL3d3dy5saW51eC50dXgvghBo
ZXJtZXMubGludXgudHV4iAgvCQEBBAUHAYcECgoACDAkBglghkgBhvhCAQQEFxYV
aHR0cDovL3d3dy5saW51eC50dXgvMCQGCWCGSAGG+EIBAwQXFhVodHRwOi8vd3d3
LmxpbnV4LnR1eC8wKgYDVR0lBCMwIQYIKwYBBQUHAwQGCisGAQQBgjcKAwMGCWCG
SAGG+EIEATBPBgNVHR8ESDBGMESgQqBAhj5sZGFwOi8vbXkubGludXgudHV4L2Nu
PVRlc3QxX1N1U0VfQ0ElMkNvdT1DQSUyQ2RjPXN1c2UlMkNkYz1kZTAkBglghkgB
hvhCAQIEFxYVaHR0cDovL3d3dy5saW51eC50dXgvMCQGCWCGSAGG+EIBCAQXFhVo
dHRwOi8vd3d3LmxpbnV4LnR1eC8wMAYIKwYBBQUHAQEEJDAiMCAGCCsGAQUFBzAB
hhRodHRwOi8vb2NzcC5teS5ob3N0LzAkBglghkgBhvhCAQcEFxYVaHR0cDovL3d3
dy5saW51eC50dXgvMA0GCSqGSIb3DQEBBQUAA4IBAQDKNffANJIkqPSPPLZ/BjMG
Zlb5RdvzxP7VbuFccUaijz/U0aMbaMNqzq8TLTVfOB3Eoo2zRxF0gM8RzDeIGC1m
KiuSr5W9x3VZqz7pNeXDuv17elHFLziHYEQMBUNFXP4BGcDn1LmEPzpxowriTW93
96+4b/d9X42x67cZnfZ1Xf2SUXEnIQ3Qmrdv5iKgMOExTq6ROD5BA5iWXjULpQXl
YO+3rONSLOUp4Bd6WHyNppeyGpyWRDjX2sfpAxdEzTL6q7tIVG0jC2/8c9doP+8h
bNdjy7pSeRd1NMZbIma6cdpfaDL1PCEVkY6Y9VltLcNy/yWhkIJilstGd9A9mOO+
-----END CERTIFICATE-----
