Certificate:
    Data:
        Version: 3 (0x2)
        Serial Number: 4 (0x4)
        Signature Algorithm: sha1WithRSAEncryption
        Issuer: C=DE, L=Nuernberg, O=My GmbH, CN=Test1_SuSE CA/emailAddress=my@linux.tux
        Validity
            Not Before: Mar 24 13:55:38 2005 GMT
            Not After : Jan 31 13:55:38 2015 GMT
        Subject: C=DE, L=Nuernberg, O=My GmbH, CN=My CA New Sub CA/emailAddress=my@linux.tux
        Subject Public Key Info:
            Public Key Algorithm: rsaEncryption
            RSA Public Key: (2048 bit)
                Modulus (2048 bit):
                    00:b7:5d:c3:88:31:b7:ba:da:cd:1a:42:05:08:19:
                    6e:37:97:07:0a:94:50:13:1d:0f:9f:69:8c:be:a6:
                    50:fa:0f:58:37:87:b8:de:71:82:64:23:9f:6a:c4:
                    90:84:8b:84:a0:f1:9d:0a:29:0b:26:2e:32:ed:fa:
                    d3:df:de:8d:a8:58:c1:38:d0:6f:73:3b:6a:aa:3c:
                    60:4e:51:d6:d5:6c:0e:67:fc:c2:0b:b3:db:77:da:
                    23:e8:18:ae:41:95:f3:bf:13:cd:76:08:dd:23:80:
                    ff:c9:88:48:9c:2a:97:10:9b:e5:fb:f4:14:20:09:
                    d4:09:19:3c:fe:a2:8e:f4:8b:01:42:31:3f:db:8f:
                    27:b3:a1:26:69:24:93:82:6b:35:d3:d8:af:c0:a7:
                    1a:f9:ac:67:55:58:92:f1:77:c0:aa:f7:02:97:c1:
                    45:36:69:f0:8d:38:8b:34:2a:de:b7:d0:cf:11:7d:
                    72:3b:b4:6f:25:be:35:10:0b:46:d9:b7:c4:28:72:
                    a5:20:9d:23:33:7c:21:41:e8:62:27:31:0a:0a:08:
                    1f:49:2f:aa:0c:88:68:39:54:a3:2d:2b:d8:32:83:
                    15:d6:13:05:9a:09:b1:1e:f2:1e:37:97:11:a1:93:
                    62:05:0d:cb:54:18:e9:2a:db:f1:8c:55:26:b1:bb:
                    be:e3
                Exponent: 65537 (0x10001)
        X509v3 extensions:
            X509v3 Basic Constraints: 
                CA:TRUE, pathlen:2
            X509v3 CRL Distribution Points: 
                URI:http://my.linux.tux/

    Signature Algorithm: sha1WithRSAEncryption
        78:8a:8b:b3:1f:b1:c5:1d:7a:00:6b:18:a3:56:91:3c:e8:26:
        66:c1:f5:35:3a:5e:36:d6:39:70:cd:aa:ee:85:a2:08:91:24:
        08:77:5c:9b:91:0d:c2:d3:e2:f7:90:19:d7:00:c1:9b:7a:c6:
        cf:12:08:30:17:da:1f:89:a6:8a:9c:f1:74:01:5c:86:5f:d9:
        4f:d7:d5:57:de:f1:d0:05:a8:99:a3:bb:22:2e:dc:cd:40:d2:
        68:68:a2:a6:7e:20:41:59:6a:d3:69:5e:fe:11:96:7e:b0:5a:
        65:60:fc:3d:c0:f1:38:1c:14:e0:6d:7b:0e:32:29:29:95:05:
        f1:5b:5b:b2:e4:81:12:f7:f7:69:ff:a9:8e:ff:d0:d9:d2:de:
        ce:42:22:2c:bf:44:c8:84:8e:9e:39:78:5b:3a:6d:9a:45:7a:
        5b:54:4b:a2:b5:9d:f3:29:19:72:e3:ff:4f:2d:5c:0a:53:c2:
        5b:10:22:6a:7b:2a:94:8f:72:ec:64:a9:cf:1f:fa:75:48:80:
        92:ef:51:e2:8c:ba:d0:0e:d0:5b:2f:fc:42:2e:94:f3:88:44:
        58:e5:01:0a:23:b3:ba:43:f7:9e:04:35:0d:8c:a5:4c:89:bc:
        9f:d7:37:35:53:6e:db:57:e7:24:36:be:2e:3e:56:56:00:cb:
        9d:1c:71:81
-----BEGIN CERTIFICATE-----
MIIDiDCCAnCgAwIBAgIBBDANBgkqhkiG9w0BAQUFADBoMQswCQYDVQQGEwJERTES
MBAGA1UEBxMJTnVlcm5iZXJnMRAwDgYDVQQKEwdNeSBHbWJIMRYwFAYDVQQDFA1U
ZXN0MV9TdVNFIENBMRswGQYJKoZIhvcNAQkBFgxteUBsaW51eC50dXgwHhcNMDUw
MzI0MTM1NTM4WhcNMTUwMTMxMTM1NTM4WjBrMQswCQYDVQQGEwJERTESMBAGA1UE
BxMJTnVlcm5iZXJnMRAwDgYDVQQKEwdNeSBHbWJIMRkwFwYDVQQDExBNeSBDQSBO
ZXcgU3ViIENBMRswGQYJKoZIhvcNAQkBFgxteUBsaW51eC50dXgwggEiMA0GCSqG
SIb3DQEBAQUAA4IBDwAwggEKAoIBAQC3XcOIMbe62s0aQgUIGW43lwcKlFATHQ+f
aYy+plD6D1g3h7jecYJkI59qxJCEi4Sg8Z0KKQsmLjLt+tPf3o2oWME40G9zO2qq
PGBOUdbVbA5n/MILs9t32iPoGK5BlfO/E812CN0jgP/JiEicKpcQm+X79BQgCdQJ
GTz+oo70iwFCMT/bjyezoSZpJJOCazXT2K/Apxr5rGdVWJLxd8Cq9wKXwUU2afCN
OIs0Kt630M8RfXI7tG8lvjUQC0bZt8QocqUgnSMzfCFB6GInMQoKCB9JL6oMiGg5
VKMtK9gygxXWEwWaCbEe8h43lxGhk2IFDctUGOkq2/GMVSaxu77jAgMBAAGjOjA4
MA8GA1UdEwQIMAYBAf8CAQIwJQYDVR0fBB4wHDAaoBigFoYUaHR0cDovL215Lmxp
bnV4LnR1eC8wDQYJKoZIhvcNAQEFBQADggEBAHiKi7MfscUdegBrGKNWkTzoJmbB
9TU6XjbWOXDNqu6FogiRJAh3XJuRDcLT4veQGdcAwZt6xs8SCDAX2h+Jpoqc8XQB
XIZf2U/X1Vfe8dAFqJmjuyIu3M1A0mhooqZ+IEFZatNpXv4Rln6wWmVg/D3A8Tgc
FOBtew4yKSmVBfFbW7LkgRL392n/qY7/0NnS3s5CIiy/RMiEjp45eFs6bZpFeltU
S6K1nfMpGXLj/08tXApTwlsQImp7KpSPcuxkqc8f+nVIgJLvUeKMutAO0Fsv/EIu
lPOIRFjlAQojs7pD954ENQ2MpUyJvJ/XNzVTbttX5yQ2vi4+VlYAy50ccYE=
-----END CERTIFICATE-----
